; ModuleID = '53/728.c'
source_filename = "53/728.c"
target datalayout = "e-m:e-p270:32:32-p271:32:32-p272:64:64-i64:64-f80:128-n8:16:32:64-S128"
target triple = "x86_64-pc-linux-gnu"

@.str = private unnamed_addr constant [3 x i8] c"%d\00", align 1
@.str.1 = private unnamed_addr constant [4 x i8] c",%d\00", align 1

; Function Attrs: noinline nounwind uwtable
define dso_local void @main() #0 {
  %1 = alloca i8*, align 8
  %2 = alloca i8*, align 8
  %3 = alloca [1000 x i8], align 16
  %4 = alloca i32, align 4
  %5 = alloca i32, align 4
  %6 = alloca i32, align 4
  store i32 0, i32* %4, align 4
  %7 = call i32 (i8*, ...) @__isoc99_scanf(i8* getelementptr inbounds ([3 x i8], [3 x i8]* @.str, i64 0, i64 0), i32* %6)
  store i32 0, i32* %5, align 4
  br label %8

8:                                                ; preds = %17, %0
  %9 = load i32, i32* %5, align 4
  %10 = load i32, i32* %6, align 4
  %11 = icmp slt i32 %9, %10
  br i1 %11, label %12, label %20

12:                                               ; preds = %8
  %13 = load i32, i32* %5, align 4
  %14 = sext i32 %13 to i64
  %15 = getelementptr inbounds [1000 x i8], [1000 x i8]* %3, i64 0, i64 %14
  %16 = call i32 (i8*, ...) @__isoc99_scanf(i8* getelementptr inbounds ([3 x i8], [3 x i8]* @.str, i64 0, i64 0), i8* %15)
  br label %17

17:                                               ; preds = %12
  %18 = load i32, i32* %5, align 4
  %19 = add nsw i32 %18, 1
  store i32 %19, i32* %5, align 4
  br label %8

20:                                               ; preds = %8
  %21 = getelementptr inbounds [1000 x i8], [1000 x i8]* %3, i64 0, i64 0
  %22 = load i8, i8* %21, align 16
  %23 = sext i8 %22 to i32
  %24 = call i32 (i8*, ...) @printf(i8* getelementptr inbounds ([3 x i8], [3 x i8]* @.str, i64 0, i64 0), i32 %23)
  %25 = getelementptr inbounds [1000 x i8], [1000 x i8]* %3, i64 0, i64 0
  %26 = getelementptr inbounds i8, i8* %25, i64 1
  store i8* %26, i8** %1, align 8
  br label %27

27:                                               ; preds = %63, %20
  %28 = load i8*, i8** %1, align 8
  %29 = getelementptr inbounds [1000 x i8], [1000 x i8]* %3, i64 0, i64 0
  %30 = load i32, i32* %6, align 4
  %31 = sext i32 %30 to i64
  %32 = getelementptr inbounds i8, i8* %29, i64 %31
  %33 = icmp ult i8* %28, %32
  br i1 %33, label %34, label %66

34:                                               ; preds = %27
  store i32 0, i32* %4, align 4
  %35 = load i8*, i8** %1, align 8
  %36 = getelementptr inbounds i8, i8* %35, i64 -1
  store i8* %36, i8** %2, align 8
  br label %37

37:                                               ; preds = %51, %34
  %38 = load i8*, i8** %2, align 8
  %39 = getelementptr inbounds [1000 x i8], [1000 x i8]* %3, i64 0, i64 0
  %40 = icmp uge i8* %38, %39
  br i1 %40, label %41, label %54

41:                                               ; preds = %37
  %42 = load i8*, i8** %1, align 8
  %43 = load i8, i8* %42, align 1
  %44 = sext i8 %43 to i32
  %45 = load i8*, i8** %2, align 8
  %46 = load i8, i8* %45, align 1
  %47 = sext i8 %46 to i32
  %48 = icmp eq i32 %44, %47
  br i1 %48, label %49, label %50

49:                                               ; preds = %41
  store i32 1, i32* %4, align 4
  br label %54

50:                                               ; preds = %41
  br label %51

51:                                               ; preds = %50
  %52 = load i8*, i8** %2, align 8
  %53 = getelementptr inbounds i8, i8* %52, i32 -1
  store i8* %53, i8** %2, align 8
  br label %37

54:                                               ; preds = %49, %37
  %55 = load i32, i32* %4, align 4
  %56 = icmp eq i32 %55, 0
  br i1 %56, label %57, label %62

57:                                               ; preds = %54
  %58 = load i8*, i8** %1, align 8
  %59 = load i8, i8* %58, align 1
  %60 = sext i8 %59 to i32
  %61 = call i32 (i8*, ...) @printf(i8* getelementptr inbounds ([4 x i8], [4 x i8]* @.str.1, i64 0, i64 0), i32 %60)
  br label %62

62:                                               ; preds = %57, %54
  br label %63

63:                                               ; preds = %62
  %64 = load i8*, i8** %1, align 8
  %65 = getelementptr inbounds i8, i8* %64, i32 1
  store i8* %65, i8** %1, align 8
  br label %27

66:                                               ; preds = %27
  ret void
}

declare dso_local i32 @__isoc99_scanf(i8*, ...) #1

declare dso_local i32 @printf(i8*, ...) #1


!llvm.module.flags = !{!0}
!llvm.ident = !{!1}

!0 = !{i32 1, !"wchar_size", i32 4}
!1 = !{!"clang version 10.0.0-4ubuntu1 "}
